target datalayout = "e-m:e-p270:32:32-p271:32:32-p272:64:64-i64:64-i128:128-f80:128-n8:16:32:64-S128"
target triple = "x86_64-pc-linux-gnu"

%struct.CTState = type { ptr, i32, i32, ptr, ptr, ptr, %struct.CCallback, [128 x i16] }
%struct.CCallback = type { [8 x %union.FPRCBArg], [8 x i64], ptr, ptr, ptr, i32, i32, i32 }
%union.FPRCBArg = type { double }
%struct.CType = type { i32, i32, i16, i16, %struct.GCRef }
%struct.GCRef = type { i64 }

; Function Attrs: alwaysinline nounwind uwtable
define internal i32 @ctype_check(ptr noundef %0, i32 noundef %1) #5 {
  %3 = alloca ptr, align 8
  %4 = alloca i32, align 4
  store ptr %0, ptr %3, align 8, !tbaa !4
  store i32 %1, ptr %4, align 4, !tbaa !21
  %5 = load i32, ptr %4, align 4, !tbaa !21
  ret i32 %5
}

; Function Attrs: alwaysinline nounwind uwtable
define internal ptr @ctype_child(ptr noundef %0, ptr noundef %1) #5 {
  %3 = alloca ptr, align 8
  %4 = alloca ptr, align 8
  store ptr %0, ptr %3, align 8, !tbaa !4
  store ptr %1, ptr %4, align 8, !tbaa !25
  %5 = load ptr, ptr %3, align 8, !tbaa !4
  %6 = load ptr, ptr %4, align 8, !tbaa !25
  %7 = getelementptr inbounds nuw %struct.CType, ptr %6, i32 0, i32 0
  %8 = load i32, ptr %7, align 8, !tbaa !26
  %9 = and i32 %8, 65535
  %10 = call ptr @ctype_get(ptr noundef %5, i32 noundef %9)
  ret ptr %10
}

; Function Attrs: alwaysinline nounwind uwtable
define internal ptr @ctype_get(ptr noundef %0, i32 noundef %1) #5 {
  %3 = alloca ptr, align 8
  %4 = alloca i32, align 4
  store ptr %0, ptr %3, align 8, !tbaa !4
  store i32 %1, ptr %4, align 4, !tbaa !21
  %5 = load ptr, ptr %3, align 8, !tbaa !4
  %6 = getelementptr inbounds nuw %struct.CTState, ptr %5, i32 0, i32 0
  %7 = load ptr, ptr %6, align 8, !tbaa !24
  %8 = load ptr, ptr %3, align 8, !tbaa !4
  %9 = load i32, ptr %4, align 4, !tbaa !21
  %10 = call i32 @ctype_check(ptr noundef %8, i32 noundef %9)
  %11 = zext i32 %10 to i64
  %12 = getelementptr inbounds nuw %struct.CType, ptr %7, i64 %11
  ret ptr %12
}

; Function Attrs: alwaysinline nounwind uwtable
define internal ptr @ctype_raw(ptr noundef %0, i32 noundef %1) #5 {
  %3 = alloca ptr, align 8
  %4 = alloca i32, align 4
  %5 = alloca ptr, align 8
  store ptr %0, ptr %3, align 8, !tbaa !4
  store i32 %1, ptr %4, align 4, !tbaa !21
  call void @llvm.lifetime.start.p0(i64 8, ptr %5) #8
  %6 = load ptr, ptr %3, align 8, !tbaa !4
  %7 = load i32, ptr %4, align 4, !tbaa !21
  %8 = call ptr @ctype_get(ptr noundef %6, i32 noundef %7)
  store ptr %8, ptr %5, align 8, !tbaa !25
  br label %9

9:                                                ; preds = %15, %2
  %10 = load ptr, ptr %5, align 8, !tbaa !25
  %11 = getelementptr inbounds nuw %struct.CType, ptr %10, i32 0, i32 0
  %12 = load i32, ptr %11, align 8, !tbaa !26
  %13 = lshr i32 %12, 28
  %14 = icmp eq i32 %13, 8
  br i1 %14, label %15, label %19

15:                                               ; preds = %9
  %16 = load ptr, ptr %3, align 8, !tbaa !4
  %17 = load ptr, ptr %5, align 8, !tbaa !25
  %18 = call ptr @ctype_child(ptr noundef %16, ptr noundef %17)
  store ptr %18, ptr %5, align 8, !tbaa !25
  br label %9, !llvm.loop !46

19:                                               ; preds = %9
  %20 = load ptr, ptr %5, align 8, !tbaa !25
  call void @llvm.lifetime.end.p0(i64 8, ptr %5) #8
  ret ptr %20
}

; Function Attrs: nounwind uwtable
define hidden i32 @lj_ctype_size(ptr noundef %0, i32 noundef %1) #0 {
  %3 = alloca ptr, align 8
  %4 = alloca i32, align 4
  %5 = alloca ptr, align 8
  store ptr %0, ptr %3, align 8, !tbaa !4
  store i32 %1, ptr %4, align 4, !tbaa !21
  call void @llvm.lifetime.start.p0(i64 8, ptr %5) #8
  %6 = load ptr, ptr %3, align 8, !tbaa !4
  %7 = load i32, ptr %4, align 4, !tbaa !21
  %8 = call ptr @ctype_raw(ptr noundef %6, i32 noundef %7)
  store ptr %8, ptr %5, align 8, !tbaa !25
  %9 = load ptr, ptr %5, align 8, !tbaa !25
  %10 = getelementptr inbounds nuw %struct.CType, ptr %9, i32 0, i32 0
  %11 = load i32, ptr %10, align 8, !tbaa !26
  %12 = lshr i32 %11, 28
  %13 = icmp ule i32 %12, 5
  br i1 %13, label %14, label %18

14:                                               ; preds = %2
  %15 = load ptr, ptr %5, align 8, !tbaa !25
  %16 = getelementptr inbounds nuw %struct.CType, ptr %15, i32 0, i32 1
  %17 = load i32, ptr %16, align 4, !tbaa !31
  br label %19

18:                                               ; preds = %2
  br label %19

19:                                               ; preds = %18, %14
  %20 = phi i32 [ %17, %14 ], [ -1, %18 ]
  call void @llvm.lifetime.end.p0(i64 8, ptr %5) #8
  ret i32 %20
}