; Function Attrs: nofree norecurse nosync nounwind memory(read, inaccessiblemem: none) uwtable
define hidden i32 @lj_ctype_size(ptr noundef readonly captures(none) %0, i32 noundef %1) local_unnamed_addr #7 {
  %3 = load ptr, ptr %0, align 8, !tbaa !19
  br label %4

4:                                                ; preds = %4, %2
  %.pn.in = phi i32 [ %1, %2 ], [ %7, %4 ]
  %.pn = zext i32 %.pn.in to i64
  %.0.i = getelementptr inbounds nuw %struct.CType, ptr %3, i64 %.pn
  %5 = load i32, ptr %.0.i, align 8, !tbaa !28
  %6 = icmp slt i32 %5, -1879048192
  %7 = and i32 %5, 65535
  br i1 %6, label %4, label %ctype_raw.exit, !llvm.loop !39

ctype_raw.exit:                                   ; preds = %4
  %8 = icmp ult i32 %5, 1610612736
  br i1 %8, label %9, label %12

9:                                                ; preds = %ctype_raw.exit
  %10 = getelementptr inbounds nuw i8, ptr %.0.i, i64 4
  %11 = load i32, ptr %10, align 4, !tbaa !29
  br label %12

12:                                               ; preds = %ctype_raw.exit, %9
  %13 = phi i32 [ %11, %9 ], [ -1, %ctype_raw.exit ]
  ret i32 %13
}